target datalayout = "e-m:e-p270:32:32-p271:32:32-p272:64:64-i64:64-i128:128-f80:128-n8:16:32:64-S128"
target triple = "x86_64-pc-linux-gnu"

%struct.ARKodeSPRKStepMemRec = type { ptr, i32, ptr, ptr, ptr, ptr, i64, i64, i32 }

@.str = private unnamed_addr constant [127 x i8] c"generated/home/dtcxzyw/WorkSpace/Projects/compilers/llvm-opt-benchmark/bench/sundials/sundials/src/arkode/arkode_sprkstep_io.c\00", align 1
@__func__.sprkStep_PrintAllStats = private unnamed_addr constant [23 x i8] c"sprkStep_PrintAllStats\00", align 1
@.str.3 = private unnamed_addr constant [36 x i8] c"f1 RHS fn evals              = %ld\0A\00", align 1
@.str.4 = private unnamed_addr constant [36 x i8] c"f2 RHS fn evals              = %ld\0A\00", align 1
@.str.5 = private unnamed_addr constant [18 x i8] c",f1 RHS evals,%ld\00", align 1
@.str.6 = private unnamed_addr constant [21 x i8] c",f2 RHS fn evals,%ld\00", align 1
@.str.7 = private unnamed_addr constant [27 x i8] c"Invalid formatting option.\00", align 1

; Function Attrs: nounwind uwtable
define i32 @sprkStep_PrintAllStats(ptr noundef %0, ptr noundef %1, i32 noundef %2) #0 {
  %4 = alloca i32, align 4
  %5 = alloca ptr, align 8
  %6 = alloca ptr, align 8
  %7 = alloca i32, align 4
  %8 = alloca ptr, align 8
  %9 = alloca i32, align 4
  %10 = alloca i32, align 4
  store ptr %0, ptr %5, align 8, !tbaa !9
  store ptr %1, ptr %6, align 8, !tbaa !40
  store i32 %2, ptr %7, align 4, !tbaa !7
  call void @llvm.lifetime.start.p0(i64 8, ptr %8) #4
  store ptr null, ptr %8, align 8, !tbaa !11
  call void @llvm.lifetime.start.p0(i64 4, ptr %9) #4
  store i32 0, ptr %9, align 4, !tbaa !7
  %11 = load ptr, ptr %5, align 8, !tbaa !9
  %12 = call i32 @sprkStep_AccessStepMem(ptr noundef %11, ptr noundef @__func__.sprkStep_PrintAllStats, ptr noundef %8)
  store i32 %12, ptr %9, align 4, !tbaa !7
  %13 = load i32, ptr %9, align 4, !tbaa !7
  %14 = icmp ne i32 %13, 0
  br i1 %14, label %15, label %17

15:                                               ; preds = %3
  %16 = load i32, ptr %9, align 4, !tbaa !7
  store i32 %16, ptr %4, align 4
  store i32 1, ptr %10, align 4
  br label %44

17:                                               ; preds = %3
  %18 = load i32, ptr %7, align 4, !tbaa !7
  switch i32 %18, label %41 [
    i32 0, label %19
    i32 1, label %30
  ]

19:                                               ; preds = %17
  %20 = load ptr, ptr %6, align 8, !tbaa !40
  %21 = load ptr, ptr %8, align 8, !tbaa !11
  %22 = getelementptr inbounds nuw %struct.ARKodeSPRKStepMemRec, ptr %21, i32 0, i32 6
  %23 = load i64, ptr %22, align 8, !tbaa !36
  %24 = call i32 (ptr, ptr, ...) @fprintf(ptr noundef %20, ptr noundef @.str.3, i64 noundef %23) #4
  %25 = load ptr, ptr %6, align 8, !tbaa !40
  %26 = load ptr, ptr %8, align 8, !tbaa !11
  %27 = getelementptr inbounds nuw %struct.ARKodeSPRKStepMemRec, ptr %26, i32 0, i32 7
  %28 = load i64, ptr %27, align 8, !tbaa !38
  %29 = call i32 (ptr, ptr, ...) @fprintf(ptr noundef %25, ptr noundef @.str.4, i64 noundef %28) #4
  br label %43

30:                                               ; preds = %17
  %31 = load ptr, ptr %6, align 8, !tbaa !40
  %32 = load ptr, ptr %8, align 8, !tbaa !11
  %33 = getelementptr inbounds nuw %struct.ARKodeSPRKStepMemRec, ptr %32, i32 0, i32 6
  %34 = load i64, ptr %33, align 8, !tbaa !36
  %35 = call i32 (ptr, ptr, ...) @fprintf(ptr noundef %31, ptr noundef @.str.5, i64 noundef %34) #4
  %36 = load ptr, ptr %6, align 8, !tbaa !40
  %37 = load ptr, ptr %8, align 8, !tbaa !11
  %38 = getelementptr inbounds nuw %struct.ARKodeSPRKStepMemRec, ptr %37, i32 0, i32 7
  %39 = load i64, ptr %38, align 8, !tbaa !38
  %40 = call i32 (ptr, ptr, ...) @fprintf(ptr noundef %36, ptr noundef @.str.6, i64 noundef %39) #4
  br label %43

41:                                               ; preds = %17
  %42 = load ptr, ptr %5, align 8, !tbaa !9
  call void (ptr, i32, i32, ptr, ptr, ptr, ...) @arkProcessError(ptr noundef %42, i32 noundef -22, i32 noundef 283, ptr noundef @__func__.sprkStep_PrintAllStats, ptr noundef @.str, ptr noundef @.str.7)
  store i32 -22, ptr %4, align 4
  store i32 1, ptr %10, align 4
  br label %44

43:                                               ; preds = %30, %19
  store i32 0, ptr %4, align 4
  store i32 1, ptr %10, align 4
  br label %44

44:                                               ; preds = %43, %41, %15
  call void @llvm.lifetime.end.p0(i64 4, ptr %9) #4
  call void @llvm.lifetime.end.p0(i64 8, ptr %8) #4
  %45 = load i32, ptr %4, align 4
  ret i32 %45
}