; Function Attrs: nounwind uwtable
define i32 @sprkStep_PrintAllStats(ptr noundef %0, ptr noundef captures(none) %1, i32 noundef %2) local_unnamed_addr #0 {
  %4 = alloca ptr, align 8
  call void @llvm.lifetime.start.p0(i64 8, ptr nonnull %4) #5
  store ptr null, ptr %4, align 8, !tbaa !8
  %5 = call i32 @sprkStep_AccessStepMem(ptr noundef %0, ptr noundef nonnull @__func__.sprkStep_PrintAllStats, ptr noundef nonnull %4) #5
  %.not = icmp eq i32 %5, 0
  br i1 %.not, label %6, label %26

6:                                                ; preds = %3
  switch i32 %2, label %25 [
    i32 0, label %7
    i32 1, label %16
  ]

7:                                                ; preds = %6
  %8 = load ptr, ptr %4, align 8, !tbaa !8
  %9 = getelementptr inbounds nuw i8, ptr %8, i64 48
  %10 = load i64, ptr %9, align 8, !tbaa !28
  %11 = call i32 (ptr, ptr, ...) @fprintf(ptr noundef %1, ptr noundef nonnull @.str.3, i64 noundef %10) #5
  %12 = load ptr, ptr %4, align 8, !tbaa !8
  %13 = getelementptr inbounds nuw i8, ptr %12, i64 56
  %14 = load i64, ptr %13, align 8, !tbaa !30
  %15 = call i32 (ptr, ptr, ...) @fprintf(ptr noundef %1, ptr noundef nonnull @.str.4, i64 noundef %14) #5
  br label %26

16:                                               ; preds = %6
  %17 = load ptr, ptr %4, align 8, !tbaa !8
  %18 = getelementptr inbounds nuw i8, ptr %17, i64 48
  %19 = load i64, ptr %18, align 8, !tbaa !28
  %20 = call i32 (ptr, ptr, ...) @fprintf(ptr noundef %1, ptr noundef nonnull @.str.5, i64 noundef %19) #5
  %21 = load ptr, ptr %4, align 8, !tbaa !8
  %22 = getelementptr inbounds nuw i8, ptr %21, i64 56
  %23 = load i64, ptr %22, align 8, !tbaa !30
  %24 = call i32 (ptr, ptr, ...) @fprintf(ptr noundef %1, ptr noundef nonnull @.str.6, i64 noundef %23) #5
  br label %26

25:                                               ; preds = %6
  call void (ptr, i32, i32, ptr, ptr, ptr, ...) @arkProcessError(ptr noundef %0, i32 noundef -22, i32 noundef 283, ptr noundef nonnull @__func__.sprkStep_PrintAllStats, ptr noundef nonnull @.str, ptr noundef nonnull @.str.7) #5
  br label %26

26:                                               ; preds = %7, %16, %3, %25
  %.0 = phi i32 [ -22, %25 ], [ %5, %3 ], [ 0, %16 ], [ 0, %7 ]
  call void @llvm.lifetime.end.p0(i64 8, ptr nonnull %4) #5
  ret i32 %.0
}